; Function Attrs: nounwind uwtable
define internal fastcc void @dissect_fcfcs_rieln(ptr noundef %0, ptr noundef %1, i32 noundef range(i32 0, 2) %2) unnamed_addr #0 {
  %4 = icmp ne ptr %1, null
  %5 = icmp ne i32 %2, 0
  %or.cond = and i1 %4, %5
  br i1 %or.cond, label %6, label %11

6:                                                ; preds = %3
  %7 = load i32, ptr @hf_fcs_iename, align 4
  %8 = tail call ptr @proto_tree_add_item(ptr noundef nonnull %1, i32 noundef %7, ptr noundef %0, i32 noundef 16, i32 noundef 8, i32 noundef 0) #4
  %9 = load i32, ptr @hf_fcs_lname, align 4
  %10 = tail call ptr @proto_tree_add_item(ptr noundef nonnull %1, i32 noundef %9, ptr noundef %0, i32 noundef 24, i32 noundef 1, i32 noundef 0) #4
  br label %11

11:                                               ; preds = %6, %3
  ret void
}